(dp0
Vtau_ia
p1
F1.5
sVrecycling
p2
Vcontinuous
p3
sVz_solar
p4
F0.014
sVenhancement
p5
F1.0
sVagb_model
p6
Vcristallo11
p7
sVria
p8
Vplaw
p9
sVdelay
p10
F0.15
sVimf
p11
Vkroupa
p12
sVsmoothing
p13
F0.0
sVschmidt_index
p14
F0.5
sVeta
p15
F2.5
sVzin
p16
F0.0
sVschmidt
p17
I00
sVelements
p18
(Vfe
p19
Vsr
p20
Vo
p21
tp22
sVMgSchmidt
p23
F6000000000.0
sVfunc
p24
cvice.core._globals
_DEFAULT_FUNC_
p25
sVdt
p26
F0.01
sVtau_star
p27
F2.0
sVname
p28
Vonezonemodel
p29
sVm_lower
p30
F0.08
sVm_upper
p31
F100.0
sVMg0
p32
F6000000000.0
sVmode
p33
Vifr
p34
sVbins
p35
(lp36
F-3.0
aF-2.95
aF-2.9
aF-2.85
aF-2.8
aF-2.75
aF-2.7
aF-2.65
aF-2.6
aF-2.55
aF-2.5
aF-2.45
aF-2.4
aF-2.35
aF-2.3
aF-2.25
aF-2.2
aF-2.15
aF-2.1
aF-2.05
aF-2.0
aF-1.95
aF-1.9
aF-1.8499999999999999
aF-1.7999999999999998
aF-1.75
aF-1.7
aF-1.65
aF-1.5999999999999999
aF-1.5499999999999998
aF-1.5
aF-1.45
aF-1.4
aF-1.3499999999999999
aF-1.2999999999999998
aF-1.25
aF-1.2
aF-1.15
aF-1.0999999999999999
aF-1.0499999999999998
aF-1.0
aF-0.9499999999999997
aF-0.8999999999999999
aF-0.8500000000000001
aF-0.7999999999999998
aF-0.75
aF-0.6999999999999997
aF-0.6499999999999999
aF-0.5999999999999996
aF-0.5499999999999998
aF-0.5
aF-0.44999999999999973
aF-0.3999999999999999
aF-0.34999999999999964
aF-0.2999999999999998
aF-0.25
aF-0.19999999999999973
aF-0.1499999999999999
aF-0.09999999999999964
aF-0.04999999999999982
aF0.0
aF0.050000000000000266
aF0.10000000000000009
aF0.15000000000000036
aF0.20000000000000018
aF0.25
aF0.30000000000000027
aF0.3500000000000001
aF0.40000000000000036
aF0.4500000000000002
aF0.5
aF0.5500000000000003
aF0.6000000000000001
aF0.6500000000000004
aF0.7000000000000002
aF0.75
aF0.8000000000000003
aF0.8500000000000001
aF0.9000000000000004
aF0.9500000000000002
aF1.0
as.